target datalayout = "e-m:e-p270:32:32-p271:32:32-p272:64:64-i64:64-i128:128-f80:128-n8:16:32:64-S128"
target triple = "x86_64-pc-linux-gnu"

%struct.FFDrawContext = type { ptr, i32, i32, [4 x i32], [4 x i8], [4 x i8], i8, i8, i32, i32, i32, [3 x [3 x double]] }
%struct.FFDrawColor = type { [4 x i8], [4 x %union.anon] }
%union.anon = type { [4 x i32] }

; Function Attrs: nounwind uwtable
define internal ptr @pointer_at(ptr noundef %0, ptr noundef %1, ptr noundef %2, i32 noundef %3, i32 noundef %4, i32 noundef %5) #0 {
  %7 = alloca ptr, align 8
  %8 = alloca ptr, align 8
  %9 = alloca ptr, align 8
  %10 = alloca i32, align 4
  %11 = alloca i32, align 4
  %12 = alloca i32, align 4
  store ptr %0, ptr %7, align 8, !tbaa !24
  store ptr %1, ptr %8, align 8, !tbaa !52
  store ptr %2, ptr %9, align 8, !tbaa !55
  store i32 %3, ptr %10, align 4, !tbaa !9
  store i32 %4, ptr %11, align 4, !tbaa !9
  store i32 %5, ptr %12, align 4, !tbaa !9
  %13 = load ptr, ptr %8, align 8, !tbaa !52
  %14 = load i32, ptr %10, align 4, !tbaa !9
  %15 = sext i32 %14 to i64
  %16 = getelementptr inbounds ptr, ptr %13, i64 %15
  %17 = load ptr, ptr %16, align 8, !tbaa !4
  %18 = load i32, ptr %12, align 4, !tbaa !9
  %19 = load ptr, ptr %7, align 8, !tbaa !24
  %20 = getelementptr inbounds nuw %struct.FFDrawContext, ptr %19, i32 0, i32 5
  %21 = load i32, ptr %10, align 4, !tbaa !9
  %22 = sext i32 %21 to i64
  %23 = getelementptr inbounds [4 x i8], ptr %20, i64 0, i64 %22
  %24 = load i8, ptr %23, align 1, !tbaa !19
  %25 = zext i8 %24 to i32
  %26 = ashr i32 %18, %25
  %27 = load ptr, ptr %9, align 8, !tbaa !55
  %28 = load i32, ptr %10, align 4, !tbaa !9
  %29 = sext i32 %28 to i64
  %30 = getelementptr inbounds i32, ptr %27, i64 %29
  %31 = load i32, ptr %30, align 4, !tbaa !9
  %32 = mul nsw i32 %26, %31
  %33 = sext i32 %32 to i64
  %34 = getelementptr inbounds i8, ptr %17, i64 %33
  %35 = load i32, ptr %11, align 4, !tbaa !9
  %36 = load ptr, ptr %7, align 8, !tbaa !24
  %37 = getelementptr inbounds nuw %struct.FFDrawContext, ptr %36, i32 0, i32 4
  %38 = load i32, ptr %10, align 4, !tbaa !9
  %39 = sext i32 %38 to i64
  %40 = getelementptr inbounds [4 x i8], ptr %37, i64 0, i64 %39
  %41 = load i8, ptr %40, align 1, !tbaa !19
  %42 = zext i8 %41 to i32
  %43 = ashr i32 %35, %42
  %44 = load ptr, ptr %7, align 8, !tbaa !24
  %45 = getelementptr inbounds nuw %struct.FFDrawContext, ptr %44, i32 0, i32 3
  %46 = load i32, ptr %10, align 4, !tbaa !9
  %47 = sext i32 %46 to i64
  %48 = getelementptr inbounds [4 x i32], ptr %45, i64 0, i64 %47
  %49 = load i32, ptr %48, align 4, !tbaa !9
  %50 = mul nsw i32 %43, %49
  %51 = sext i32 %50 to i64
  %52 = getelementptr inbounds i8, ptr %34, i64 %51
  ret ptr %52
}

; Function Attrs: nounwind uwtable
define void @ff_fill_rectangle(ptr noundef %0, ptr noundef %1, ptr noundef %2, ptr noundef %3, i32 noundef %4, i32 noundef %5, i32 noundef %6, i32 noundef %7) #0 {
  %9 = alloca ptr, align 8
  %10 = alloca ptr, align 8
  %11 = alloca ptr, align 8
  %12 = alloca ptr, align 8
  %13 = alloca i32, align 4
  %14 = alloca i32, align 4
  %15 = alloca i32, align 4
  %16 = alloca i32, align 4
  %17 = alloca i32, align 4
  %18 = alloca i32, align 4
  %19 = alloca ptr, align 8
  %20 = alloca ptr, align 8
  %21 = alloca %struct.FFDrawColor, align 4
  %22 = alloca i32, align 4
  %23 = alloca i32, align 4
  %24 = alloca i32, align 4
  %25 = alloca i32, align 4
  store ptr %0, ptr %9, align 8, !tbaa !24
  store ptr %1, ptr %10, align 8, !tbaa !45
  store ptr %2, ptr %11, align 8, !tbaa !52
  store ptr %3, ptr %12, align 8, !tbaa !55
  store i32 %4, ptr %13, align 4, !tbaa !9
  store i32 %5, ptr %14, align 4, !tbaa !9
  store i32 %6, ptr %15, align 4, !tbaa !9
  store i32 %7, ptr %16, align 4, !tbaa !9
  call void @llvm.lifetime.start.p0(i64 4, ptr %17) #8
  call void @llvm.lifetime.start.p0(i64 4, ptr %18) #8
  call void @llvm.lifetime.start.p0(i64 8, ptr %19) #8
  call void @llvm.lifetime.start.p0(i64 8, ptr %20) #8
  call void @llvm.lifetime.start.p0(i64 68, ptr %21) #8
  %26 = load ptr, ptr %10, align 8, !tbaa !45
  call void @llvm.memcpy.p0.p0.i64(ptr align 4 %21, ptr align 4 %26, i64 68, i1 false), !tbaa.struct !59
  call void @llvm.lifetime.start.p0(i64 4, ptr %22) #8
  store i32 0, ptr %22, align 4, !tbaa !9
  br label %27

27:                                               ; preds = %199, %8
  %28 = load i32, ptr %22, align 4, !tbaa !9
  %29 = load ptr, ptr %9, align 8, !tbaa !24
  %30 = getelementptr inbounds nuw %struct.FFDrawContext, ptr %29, i32 0, i32 2
  %31 = load i32, ptr %30, align 4, !tbaa !37
  %32 = icmp ult i32 %28, %31
  br i1 %32, label %34, label %33

33:                                               ; preds = %27
  store i32 2, ptr %23, align 4
  br label %202

34:                                               ; preds = %27
  %35 = load ptr, ptr %9, align 8, !tbaa !24
  %36 = load ptr, ptr %11, align 8, !tbaa !52
  %37 = load ptr, ptr %12, align 8, !tbaa !55
  %38 = load i32, ptr %22, align 4, !tbaa !9
  %39 = load i32, ptr %13, align 4, !tbaa !9
  %40 = load i32, ptr %14, align 4, !tbaa !9
  %41 = call ptr @pointer_at(ptr noundef %35, ptr noundef %36, ptr noundef %37, i32 noundef %38, i32 noundef %39, i32 noundef %40)
  store ptr %41, ptr %19, align 8, !tbaa !4
  %42 = load ptr, ptr %9, align 8, !tbaa !24
  %43 = getelementptr inbounds nuw %struct.FFDrawContext, ptr %42, i32 0, i32 4
  %44 = load i32, ptr %22, align 4, !tbaa !9
  %45 = sext i32 %44 to i64
  %46 = getelementptr inbounds [4 x i8], ptr %43, i64 0, i64 %45
  %47 = load i8, ptr %46, align 1, !tbaa !19
  %48 = call i1 @llvm.is.constant.i8(i8 %47)
  br i1 %48, label %61, label %49

49:                                               ; preds = %34
  %50 = load i32, ptr %15, align 4, !tbaa !9
  %51 = sub nsw i32 0, %50
  %52 = load ptr, ptr %9, align 8, !tbaa !24
  %53 = getelementptr inbounds nuw %struct.FFDrawContext, ptr %52, i32 0, i32 4
  %54 = load i32, ptr %22, align 4, !tbaa !9
  %55 = sext i32 %54 to i64
  %56 = getelementptr inbounds [4 x i8], ptr %53, i64 0, i64 %55
  %57 = load i8, ptr %56, align 1, !tbaa !19
  %58 = zext i8 %57 to i32
  %59 = ashr i32 %51, %58
  %60 = sub nsw i32 0, %59
  br label %81

61:                                               ; preds = %34
  %62 = load i32, ptr %15, align 4, !tbaa !9
  %63 = load ptr, ptr %9, align 8, !tbaa !24
  %64 = getelementptr inbounds nuw %struct.FFDrawContext, ptr %63, i32 0, i32 4
  %65 = load i32, ptr %22, align 4, !tbaa !9
  %66 = sext i32 %65 to i64
  %67 = getelementptr inbounds [4 x i8], ptr %64, i64 0, i64 %66
  %68 = load i8, ptr %67, align 1, !tbaa !19
  %69 = zext i8 %68 to i32
  %70 = shl i32 1, %69
  %71 = add nsw i32 %62, %70
  %72 = sub nsw i32 %71, 1
  %73 = load ptr, ptr %9, align 8, !tbaa !24
  %74 = getelementptr inbounds nuw %struct.FFDrawContext, ptr %73, i32 0, i32 4
  %75 = load i32, ptr %22, align 4, !tbaa !9
  %76 = sext i32 %75 to i64
  %77 = getelementptr inbounds [4 x i8], ptr %74, i64 0, i64 %76
  %78 = load i8, ptr %77, align 1, !tbaa !19
  %79 = zext i8 %78 to i32
  %80 = ashr i32 %72, %79
  br label %81

81:                                               ; preds = %61, %49
  %82 = phi i32 [ %60, %49 ], [ %80, %61 ]
  store i32 %82, ptr %17, align 4, !tbaa !9
  %83 = load ptr, ptr %9, align 8, !tbaa !24
  %84 = getelementptr inbounds nuw %struct.FFDrawContext, ptr %83, i32 0, i32 5
  %85 = load i32, ptr %22, align 4, !tbaa !9
  %86 = sext i32 %85 to i64
  %87 = getelementptr inbounds [4 x i8], ptr %84, i64 0, i64 %86
  %88 = load i8, ptr %87, align 1, !tbaa !19
  %89 = call i1 @llvm.is.constant.i8(i8 %88)
  br i1 %89, label %102, label %90

90:                                               ; preds = %81
  %91 = load i32, ptr %16, align 4, !tbaa !9
  %92 = sub nsw i32 0, %91
  %93 = load ptr, ptr %9, align 8, !tbaa !24
  %94 = getelementptr inbounds nuw %struct.FFDrawContext, ptr %93, i32 0, i32 5
  %95 = load i32, ptr %22, align 4, !tbaa !9
  %96 = sext i32 %95 to i64
  %97 = getelementptr inbounds [4 x i8], ptr %94, i64 0, i64 %96
  %98 = load i8, ptr %97, align 1, !tbaa !19
  %99 = zext i8 %98 to i32
  %100 = ashr i32 %92, %99
  %101 = sub nsw i32 0, %100
  br label %122

102:                                              ; preds = %81
  %103 = load i32, ptr %16, align 4, !tbaa !9
  %104 = load ptr, ptr %9, align 8, !tbaa !24
  %105 = getelementptr inbounds nuw %struct.FFDrawContext, ptr %104, i32 0, i32 5
  %106 = load i32, ptr %22, align 4, !tbaa !9
  %107 = sext i32 %106 to i64
  %108 = getelementptr inbounds [4 x i8], ptr %105, i64 0, i64 %107
  %109 = load i8, ptr %108, align 1, !tbaa !19
  %110 = zext i8 %109 to i32
  %111 = shl i32 1, %110
  %112 = add nsw i32 %103, %111
  %113 = sub nsw i32 %112, 1
  %114 = load ptr, ptr %9, align 8, !tbaa !24
  %115 = getelementptr inbounds nuw %struct.FFDrawContext, ptr %114, i32 0, i32 5
  %116 = load i32, ptr %22, align 4, !tbaa !9
  %117 = sext i32 %116 to i64
  %118 = getelementptr inbounds [4 x i8], ptr %115, i64 0, i64 %117
  %119 = load i8, ptr %118, align 1, !tbaa !19
  %120 = zext i8 %119 to i32
  %121 = ashr i32 %113, %120
  br label %122

122:                                              ; preds = %102, %90
  %123 = phi i32 [ %101, %90 ], [ %121, %102 ]
  store i32 %123, ptr %18, align 4, !tbaa !9
  %124 = load i32, ptr %18, align 4, !tbaa !9
  %125 = icmp ne i32 %124, 0
  br i1 %125, label %127, label %126

126:                                              ; preds = %122
  store i32 1, ptr %23, align 4
  br label %202

127:                                              ; preds = %122
  %128 = load ptr, ptr %19, align 8, !tbaa !4
  store ptr %128, ptr %20, align 8, !tbaa !4
  call void @llvm.lifetime.start.p0(i64 4, ptr %24) #8
  store i32 0, ptr %24, align 4, !tbaa !9
  br label %129

129:                                              ; preds = %157, %127
  %130 = load i32, ptr %24, align 4, !tbaa !9
  %131 = load i32, ptr %17, align 4, !tbaa !9
  %132 = icmp slt i32 %130, %131
  br i1 %132, label %134, label %133

133:                                              ; preds = %129
  store i32 5, ptr %23, align 4
  call void @llvm.lifetime.end.p0(i64 4, ptr %24) #8
  br label %160

134:                                              ; preds = %129
  %135 = load ptr, ptr %20, align 8, !tbaa !4
  %136 = getelementptr inbounds nuw %struct.FFDrawColor, ptr %21, i32 0, i32 1
  %137 = load i32, ptr %22, align 4, !tbaa !9
  %138 = sext i32 %137 to i64
  %139 = getelementptr inbounds [4 x %union.anon], ptr %136, i64 0, i64 %138
  %140 = getelementptr inbounds [16 x i8], ptr %139, i64 0, i64 0
  %141 = load ptr, ptr %9, align 8, !tbaa !24
  %142 = getelementptr inbounds nuw %struct.FFDrawContext, ptr %141, i32 0, i32 3
  %143 = load i32, ptr %22, align 4, !tbaa !9
  %144 = sext i32 %143 to i64
  %145 = getelementptr inbounds [4 x i32], ptr %142, i64 0, i64 %144
  %146 = load i32, ptr %145, align 4, !tbaa !9
  %147 = sext i32 %146 to i64
  call void @llvm.memcpy.p0.p0.i64(ptr align 1 %135, ptr align 4 %140, i64 %147, i1 false)
  %148 = load ptr, ptr %9, align 8, !tbaa !24
  %149 = getelementptr inbounds nuw %struct.FFDrawContext, ptr %148, i32 0, i32 3
  %150 = load i32, ptr %22, align 4, !tbaa !9
  %151 = sext i32 %150 to i64
  %152 = getelementptr inbounds [4 x i32], ptr %149, i64 0, i64 %151
  %153 = load i32, ptr %152, align 4, !tbaa !9
  %154 = load ptr, ptr %20, align 8, !tbaa !4
  %155 = sext i32 %153 to i64
  %156 = getelementptr inbounds i8, ptr %154, i64 %155
  store ptr %156, ptr %20, align 8, !tbaa !4
  br label %157

157:                                              ; preds = %134
  %158 = load i32, ptr %24, align 4, !tbaa !9
  %159 = add nsw i32 %158, 1
  store i32 %159, ptr %24, align 4, !tbaa !9
  br label %129, !llvm.loop !60

160:                                              ; preds = %133
  %161 = load ptr, ptr %9, align 8, !tbaa !24
  %162 = getelementptr inbounds nuw %struct.FFDrawContext, ptr %161, i32 0, i32 3
  %163 = load i32, ptr %22, align 4, !tbaa !9
  %164 = sext i32 %163 to i64
  %165 = getelementptr inbounds [4 x i32], ptr %162, i64 0, i64 %164
  %166 = load i32, ptr %165, align 4, !tbaa !9
  %167 = load i32, ptr %17, align 4, !tbaa !9
  %168 = mul nsw i32 %167, %166
  store i32 %168, ptr %17, align 4, !tbaa !9
  %169 = load ptr, ptr %19, align 8, !tbaa !4
  %170 = load ptr, ptr %12, align 8, !tbaa !55
  %171 = load i32, ptr %22, align 4, !tbaa !9
  %172 = sext i32 %171 to i64
  %173 = getelementptr inbounds i32, ptr %170, i64 %172
  %174 = load i32, ptr %173, align 4, !tbaa !9
  %175 = sext i32 %174 to i64
  %176 = getelementptr inbounds i8, ptr %169, i64 %175
  store ptr %176, ptr %20, align 8, !tbaa !4
  call void @llvm.lifetime.start.p0(i64 4, ptr %25) #8
  store i32 1, ptr %25, align 4, !tbaa !9
  br label %177

177:                                              ; preds = %195, %160
  %178 = load i32, ptr %25, align 4, !tbaa !9
  %179 = load i32, ptr %18, align 4, !tbaa !9
  %180 = icmp slt i32 %178, %179
  br i1 %180, label %182, label %181

181:                                              ; preds = %177
  store i32 8, ptr %23, align 4
  call void @llvm.lifetime.end.p0(i64 4, ptr %25) #8
  br label %198

182:                                              ; preds = %177
  %183 = load ptr, ptr %20, align 8, !tbaa !4
  %184 = load ptr, ptr %19, align 8, !tbaa !4
  %185 = load i32, ptr %17, align 4, !tbaa !9
  %186 = sext i32 %185 to i64
  call void @llvm.memcpy.p0.p0.i64(ptr align 1 %183, ptr align 1 %184, i64 %186, i1 false)
  %187 = load ptr, ptr %12, align 8, !tbaa !55
  %188 = load i32, ptr %22, align 4, !tbaa !9
  %189 = sext i32 %188 to i64
  %190 = getelementptr inbounds i32, ptr %187, i64 %189
  %191 = load i32, ptr %190, align 4, !tbaa !9
  %192 = load ptr, ptr %20, align 8, !tbaa !4
  %193 = sext i32 %191 to i64
  %194 = getelementptr inbounds i8, ptr %192, i64 %193
  store ptr %194, ptr %20, align 8, !tbaa !4
  br label %195

195:                                              ; preds = %182
  %196 = load i32, ptr %25, align 4, !tbaa !9
  %197 = add nsw i32 %196, 1
  store i32 %197, ptr %25, align 4, !tbaa !9
  br label %177, !llvm.loop !61

198:                                              ; preds = %181
  br label %199

199:                                              ; preds = %198
  %200 = load i32, ptr %22, align 4, !tbaa !9
  %201 = add nsw i32 %200, 1
  store i32 %201, ptr %22, align 4, !tbaa !9
  br label %27, !llvm.loop !62

202:                                              ; preds = %126, %33
  call void @llvm.lifetime.end.p0(i64 4, ptr %22) #8
  %203 = load i32, ptr %23, align 4
  switch i32 %203, label %205 [
    i32 2, label %204
  ]

204:                                              ; preds = %202
  store i32 0, ptr %23, align 4
  br label %205

205:                                              ; preds = %204, %202
  call void @llvm.lifetime.end.p0(i64 68, ptr %21) #8
  call void @llvm.lifetime.end.p0(i64 8, ptr %20) #8
  call void @llvm.lifetime.end.p0(i64 8, ptr %19) #8
  call void @llvm.lifetime.end.p0(i64 4, ptr %18) #8
  call void @llvm.lifetime.end.p0(i64 4, ptr %17) #8
  %206 = load i32, ptr %23, align 4
  switch i32 %206, label %208 [
    i32 0, label %207
    i32 1, label %207
  ]

207:                                              ; preds = %205, %205
  ret void

208:                                              ; preds = %205
  unreachable
}