; Function Attrs: nofree norecurse nosync nounwind memory(readwrite, inaccessiblemem: none) uwtable
define void @ff_fill_rectangle(ptr noundef readonly captures(none) %0, ptr noundef readonly captures(none) %1, ptr noundef readonly captures(none) %2, ptr noundef readonly captures(none) %3, i32 noundef %4, i32 noundef %5, i32 noundef %6, i32 noundef %7) local_unnamed_addr #6 {
  %9 = alloca %struct.FFDrawColor, align 4
  call void @llvm.lifetime.start.p0(i64 68, ptr nonnull %9) #11
  call void @llvm.memcpy.p0.p0.i64(ptr noundef nonnull align 4 dereferenceable(68) %9, ptr noundef nonnull align 4 dereferenceable(68) %1, i64 68, i1 false), !tbaa.struct !45
  %10 = getelementptr inbounds nuw i8, ptr %0, i64 12
  %11 = load i32, ptr %10, align 4, !tbaa !29
  %.not75 = icmp eq i32 %11, 0
  br i1 %.not75, label %._crit_edge73, label %.lr.ph72

.lr.ph72:                                         ; preds = %8
  %12 = getelementptr inbounds nuw i8, ptr %0, i64 36
  %13 = getelementptr inbounds nuw i8, ptr %0, i64 32
  %14 = getelementptr inbounds nuw i8, ptr %0, i64 16
  %15 = sub nsw i32 0, %6
  %16 = sub nsw i32 0, %7
  %17 = getelementptr inbounds nuw i8, ptr %9, i64 4
  br label %18

18:                                               ; preds = %.lr.ph72, %._crit_edge69
  %indvars.iv = phi i64 [ 0, %.lr.ph72 ], [ %indvars.iv.next, %._crit_edge69 ]
  %19 = getelementptr inbounds nuw ptr, ptr %2, i64 %indvars.iv
  %20 = load ptr, ptr %19, align 8, !tbaa !42
  %21 = getelementptr inbounds nuw [4 x i8], ptr %12, i64 0, i64 %indvars.iv
  %22 = load i8, ptr %21, align 1, !tbaa !15
  %23 = zext i8 %22 to i32
  %24 = ashr i32 %5, %23
  %25 = getelementptr inbounds nuw i32, ptr %3, i64 %indvars.iv
  %26 = load i32, ptr %25, align 4, !tbaa !22
  %27 = mul nsw i32 %24, %26
  %28 = sext i32 %27 to i64
  %29 = getelementptr inbounds i8, ptr %20, i64 %28
  %30 = getelementptr inbounds nuw [4 x i8], ptr %13, i64 0, i64 %indvars.iv
  %31 = load i8, ptr %30, align 1, !tbaa !15
  %32 = zext i8 %31 to i32
  %33 = ashr i32 %4, %32
  %34 = getelementptr inbounds nuw [4 x i32], ptr %14, i64 0, i64 %indvars.iv
  %35 = load i32, ptr %34, align 4, !tbaa !22
  %36 = mul nsw i32 %33, %35
  %37 = sext i32 %36 to i64
  %38 = getelementptr inbounds i8, ptr %29, i64 %37
  %39 = ashr i32 %15, %32
  %40 = sub nsw i32 0, %39
  %41 = ashr i32 %16, %23
  %42 = sub nsw i32 0, %41
  %.not = icmp eq i32 %41, 0
  br i1 %.not, label %._crit_edge73, label %.preheader

.preheader:                                       ; preds = %18
  %43 = icmp slt i32 %39, 0
  br i1 %43, label %.lr.ph, label %._crit_edge

.lr.ph:                                           ; preds = %.preheader
  %44 = getelementptr inbounds nuw [4 x %union.anon], ptr %17, i64 0, i64 %indvars.iv
  br label %52

._crit_edge:                                      ; preds = %52, %.preheader
  %45 = phi i32 [ %35, %.preheader ], [ %55, %52 ]
  %46 = icmp slt i32 %41, -1
  br i1 %46, label %.lr.ph68, label %._crit_edge69

.lr.ph68:                                         ; preds = %._crit_edge
  %47 = load i32, ptr %25, align 4, !tbaa !22
  %48 = sext i32 %47 to i64
  %49 = getelementptr inbounds i8, ptr %38, i64 %48
  %50 = mul nsw i32 %45, %40
  %51 = sext i32 %50 to i64
  br label %62

52:                                               ; preds = %.lr.ph, %52
  %53 = phi i32 [ %35, %.lr.ph ], [ %55, %52 ]
  %.05764 = phi i32 [ 0, %.lr.ph ], [ %58, %52 ]
  %.06063 = phi ptr [ %38, %.lr.ph ], [ %57, %52 ]
  %54 = sext i32 %53 to i64
  call void @llvm.memcpy.p0.p0.i64(ptr align 1 %.06063, ptr nonnull align 4 %44, i64 %54, i1 false)
  %55 = load i32, ptr %34, align 4, !tbaa !22
  %56 = sext i32 %55 to i64
  %57 = getelementptr inbounds i8, ptr %.06063, i64 %56
  %58 = add nuw nsw i32 %.05764, 1
  %exitcond.not = icmp eq i32 %58, %40
  br i1 %exitcond.not, label %._crit_edge, label %52, !llvm.loop !46

._crit_edge69:                                    ; preds = %62, %._crit_edge
  %indvars.iv.next = add nuw nsw i64 %indvars.iv, 1
  %59 = load i32, ptr %10, align 4, !tbaa !29
  %60 = zext i32 %59 to i64
  %61 = icmp samesign ult i64 %indvars.iv.next, %60
  br i1 %61, label %18, label %._crit_edge73, !llvm.loop !47

62:                                               ; preds = %.lr.ph68, %62
  %.066 = phi i32 [ 1, %.lr.ph68 ], [ %66, %62 ]
  %.165 = phi ptr [ %49, %.lr.ph68 ], [ %65, %62 ]
  tail call void @llvm.memcpy.p0.p0.i64(ptr align 1 %.165, ptr align 1 %38, i64 %51, i1 false)
  %63 = load i32, ptr %25, align 4, !tbaa !22
  %64 = sext i32 %63 to i64
  %65 = getelementptr inbounds i8, ptr %.165, i64 %64
  %66 = add nuw nsw i32 %.066, 1
  %exitcond76.not = icmp eq i32 %66, %42
  br i1 %exitcond76.not, label %._crit_edge69, label %62, !llvm.loop !48

._crit_edge73:                                    ; preds = %._crit_edge69, %18, %8
  call void @llvm.lifetime.end.p0(i64 68, ptr nonnull %9) #11
  ret void
}